; Function Attrs: mustprogress uwtable
define hidden noalias noundef ptr @_Z5mk_eqP5probeS0_(ptr noundef %0, ptr noundef %1) local_unnamed_addr #3 {
  %3 = tail call noalias noundef ptr @_ZN6memory8allocateEm(i64 noundef 32)
  %4 = getelementptr inbounds nuw i8, ptr %3, i64 8
  store i32 0, ptr %4, align 8, !tbaa !6
  %5 = getelementptr inbounds nuw i8, ptr %3, i64 16
  store ptr %0, ptr %5, align 8, !tbaa !17
  %6 = getelementptr inbounds nuw i8, ptr %3, i64 24
  store ptr %1, ptr %6, align 8, !tbaa !19
  %7 = getelementptr inbounds nuw i8, ptr %0, i64 8
  %8 = load i32, ptr %7, align 8, !tbaa !6
  %9 = add i32 %8, 1
  store i32 %9, ptr %7, align 8, !tbaa !6
  %10 = getelementptr inbounds nuw i8, ptr %1, i64 8
  %11 = load i32, ptr %10, align 8, !tbaa !6
  %12 = add i32 %11, 1
  store i32 %12, ptr %10, align 8, !tbaa !6
  store ptr getelementptr inbounds nuw inrange(-16, 24) (i8, ptr @_ZTV8eq_probe, i64 16), ptr %3, align 8, !tbaa !3
  ret ptr %3
}